target datalayout = "e-m:e-p270:32:32-p271:32:32-p272:64:64-i64:64-i128:128-f80:128-n8:16:32:64-S128"
target triple = "x86_64-pc-linux-gnu"

%"class.icu_77::CollationKey" = type { %"class.icu_77::UObject", i32, i32, %"union.icu_77::CollationKey::StackBufferOrFields" }
%"class.icu_77::UObject" = type { ptr }
%"union.icu_77::CollationKey::StackBufferOrFields" = type { %struct.anon, [16 x i8] }
%struct.anon = type { ptr, i32 }

; Function Attrs: mustprogress nounwind uwtable
define linkonce_odr noundef ptr @_ZN6icu_7712CollationKey8getBytesEv(ptr noundef nonnull align 8 dereferenceable(48) %0) #0 comdat align 2 {
  %2 = alloca ptr, align 8
  store ptr %0, ptr %2, align 8, !tbaa !3
  %3 = load ptr, ptr %2, align 8
  %4 = getelementptr inbounds nuw %"class.icu_77::CollationKey", ptr %3, i32 0, i32 1
  %5 = load i32, ptr %4, align 8, !tbaa !10
  %6 = icmp sge i32 %5, 0
  br i1 %6, label %7, label %10

7:                                                ; preds = %1
  %8 = getelementptr inbounds nuw %"class.icu_77::CollationKey", ptr %3, i32 0, i32 3
  %9 = getelementptr inbounds [32 x i8], ptr %8, i64 0, i64 0
  br label %14

10:                                               ; preds = %1
  %11 = getelementptr inbounds nuw %"class.icu_77::CollationKey", ptr %3, i32 0, i32 3
  %12 = getelementptr inbounds nuw %struct.anon, ptr %11, i32 0, i32 0
  %13 = load ptr, ptr %12, align 8, !tbaa !20
  br label %14

14:                                               ; preds = %10, %7
  %15 = phi ptr [ %9, %7 ], [ %13, %10 ]
  ret ptr %15
}

; Function Attrs: mustprogress uwtable
define noundef ptr @_ZN6icu_7712CollationKey10reallocateEii(ptr noundef nonnull align 8 dereferenceable(48) %0, i32 noundef %1, i32 noundef %2) #3 align 2 {
  %4 = alloca ptr, align 8
  %5 = alloca ptr, align 8
  %6 = alloca i32, align 4
  %7 = alloca i32, align 4
  %8 = alloca ptr, align 8
  %9 = alloca i32, align 4
  store ptr %0, ptr %5, align 8, !tbaa !3
  store i32 %1, ptr %6, align 4, !tbaa !19
  store i32 %2, ptr %7, align 4, !tbaa !19
  %10 = load ptr, ptr %5, align 8
  call void @llvm.lifetime.start.p0(i64 8, ptr %8) #11
  %11 = load i32, ptr %6, align 4, !tbaa !19
  %12 = sext i32 %11 to i64
  %13 = call noalias ptr @uprv_malloc_77(i64 noundef %12) #12
  store ptr %13, ptr %8, align 8, !tbaa !17
  %14 = load ptr, ptr %8, align 8, !tbaa !17
  %15 = icmp eq ptr %14, null
  br i1 %15, label %16, label %17

16:                                               ; preds = %3
  store ptr null, ptr %4, align 8
  store i32 1, ptr %9, align 4
  br label %47

17:                                               ; preds = %3
  %18 = load i32, ptr %7, align 4, !tbaa !19
  %19 = icmp sgt i32 %18, 0
  br i1 %19, label %20, label %28

20:                                               ; preds = %17
  br label %21

21:                                               ; preds = %20
  %22 = load ptr, ptr %8, align 8, !tbaa !17
  %23 = call noundef ptr @_ZN6icu_7712CollationKey8getBytesEv(ptr noundef nonnull align 8 dereferenceable(48) %10)
  %24 = load i32, ptr %7, align 4, !tbaa !19
  %25 = sext i32 %24 to i64
  call void @llvm.memcpy.p0.p0.i64(ptr align 1 %22, ptr align 1 %23, i64 %25, i1 false)
  br label %26

26:                                               ; preds = %21
  br label %27

27:                                               ; preds = %26
  br label %28

28:                                               ; preds = %27, %17
  %29 = getelementptr inbounds nuw %"class.icu_77::CollationKey", ptr %10, i32 0, i32 1
  %30 = load i32, ptr %29, align 8, !tbaa !10
  %31 = icmp slt i32 %30, 0
  br i1 %31, label %32, label %36

32:                                               ; preds = %28
  %33 = getelementptr inbounds nuw %"class.icu_77::CollationKey", ptr %10, i32 0, i32 3
  %34 = getelementptr inbounds nuw %struct.anon, ptr %33, i32 0, i32 0
  %35 = load ptr, ptr %34, align 8, !tbaa !20
  call void @uprv_free_77(ptr noundef %35)
  br label %36

36:                                               ; preds = %32, %28
  %37 = load ptr, ptr %8, align 8, !tbaa !17
  %38 = getelementptr inbounds nuw %"class.icu_77::CollationKey", ptr %10, i32 0, i32 3
  %39 = getelementptr inbounds nuw %struct.anon, ptr %38, i32 0, i32 0
  store ptr %37, ptr %39, align 8, !tbaa !20
  %40 = load i32, ptr %6, align 4, !tbaa !19
  %41 = getelementptr inbounds nuw %"class.icu_77::CollationKey", ptr %10, i32 0, i32 3
  %42 = getelementptr inbounds nuw %struct.anon, ptr %41, i32 0, i32 1
  store i32 %40, ptr %42, align 8, !tbaa !20
  %43 = getelementptr inbounds nuw %"class.icu_77::CollationKey", ptr %10, i32 0, i32 1
  %44 = load i32, ptr %43, align 8, !tbaa !10
  %45 = or i32 %44, -2147483648
  store i32 %45, ptr %43, align 8, !tbaa !10
  %46 = load ptr, ptr %8, align 8, !tbaa !17
  store ptr %46, ptr %4, align 8
  store i32 1, ptr %9, align 4
  br label %47

47:                                               ; preds = %36, %16
  call void @llvm.lifetime.end.p0(i64 8, ptr %8) #11
  %48 = load ptr, ptr %4, align 8
  ret ptr %48
}