; Function Attrs: mustprogress uwtable
define noundef ptr @_ZN6icu_7712CollationKey10reallocateEii(ptr noundef nonnull align 8 captures(none) dereferenceable(48) %0, i32 noundef %1, i32 noundef %2) local_unnamed_addr #2 align 2 {
  %4 = sext i32 %1 to i64
  %5 = tail call noalias ptr @uprv_malloc_77(i64 noundef %4) #15
  %6 = icmp eq ptr %5, null
  br i1 %6, label %27, label %7

7:                                                ; preds = %3
  %8 = icmp sgt i32 %2, 0
  %9 = getelementptr inbounds nuw i8, ptr %0, i64 8
  %10 = load i32, ptr %9, align 8, !tbaa !6
  br i1 %8, label %11, label %._crit_edge

11:                                               ; preds = %7
  %12 = getelementptr inbounds nuw i8, ptr %0, i64 16
  %13 = load ptr, ptr %12, align 8
  %14 = icmp slt i32 %10, 0
  %15 = select i1 %14, ptr %13, ptr %12
  %16 = zext nneg i32 %2 to i64
  tail call void @llvm.memcpy.p0.p0.i64(ptr nonnull align 1 %5, ptr align 1 %15, i64 %16, i1 false)
  br label %._crit_edge

._crit_edge:                                      ; preds = %7, %11
  %17 = getelementptr inbounds nuw i8, ptr %0, i64 8
  %18 = icmp slt i32 %10, 0
  br i1 %18, label %19, label %22

19:                                               ; preds = %._crit_edge
  %20 = getelementptr inbounds nuw i8, ptr %0, i64 16
  %21 = load ptr, ptr %20, align 8, !tbaa !12
  tail call void @uprv_free_77(ptr noundef %21)
  %.pre11 = load i32, ptr %17, align 8, !tbaa !6
  br label %22

22:                                               ; preds = %19, %._crit_edge
  %23 = phi i32 [ %.pre11, %19 ], [ %10, %._crit_edge ]
  %24 = getelementptr inbounds nuw i8, ptr %0, i64 16
  store ptr %5, ptr %24, align 8, !tbaa !12
  %25 = getelementptr inbounds nuw i8, ptr %0, i64 24
  store i32 %1, ptr %25, align 8, !tbaa !12
  %26 = or i32 %23, -2147483648
  store i32 %26, ptr %17, align 8, !tbaa !6
  br label %27

27:                                               ; preds = %3, %22
  ret ptr %5
}